; Function Attrs: mustprogress nofree norecurse nosync nounwind willreturn memory(none) uwtable
define noundef double @_ZN2mu9ParserInt10UnaryMinusEd(double noundef %0) #2 align 2 {
  %2 = fcmp oge double %0, 0.000000e+00
  %3 = select i1 %2, double 5.000000e-01, double -5.000000e-01
  %4 = fadd double %3, %0
  %5 = fptosi double %4 to i32
  %6 = sub nsw i32 0, %5
  %7 = sitofp i32 %6 to double
  ret double %7
}